; Function Attrs: mustprogress nounwind uwtable
define hidden void @_ZN11FileMapInfo39check_nonempty_dir_in_shared_path_tableEv() local_unnamed_addr #0 align 2 {
  %1 = load ptr, ptr @_ZN11FileMapInfo18_shared_path_tableE, align 8
  %2 = icmp eq ptr %1, null
  br i1 %2, label %_ZN15SharedPathTable4sizeEv.exit, label %3

3:                                                ; preds = %0
  %4 = load i32, ptr %1, align 8
  %5 = add nsw i32 %4, -1
  br label %_ZN15SharedPathTable4sizeEv.exit

_ZN15SharedPathTable4sizeEv.exit:                 ; preds = %0, %3
  %6 = phi i32 [ %5, %3 ], [ -1, %0 ]
  %7 = load i16, ptr @_ZN14ClassLoaderExt20_max_used_path_indexE, align 2
  %8 = sext i16 %7 to i32
  %spec.select = tail call i32 @llvm.smin.i32(i32 %6, i32 %8)
  %.not13 = icmp slt i32 %spec.select, 0
  br i1 %.not13, label %.critedge, label %.lr.ph.preheader

.lr.ph.preheader:                                 ; preds = %_ZN15SharedPathTable4sizeEv.exit
  %9 = add nuw nsw i32 %spec.select, 1
  %wide.trip.count = zext nneg i32 %9 to i64
  br label %.lr.ph

.lr.ph:                                           ; preds = %.lr.ph.preheader, %34
  %indvars.iv = phi i64 [ 0, %.lr.ph.preheader ], [ %indvars.iv.next, %34 ]
  %.015 = phi i1 [ false, %.lr.ph.preheader ], [ %.1, %34 ]
  %10 = load ptr, ptr @_ZN11FileMapInfo18_shared_path_tableE, align 8
  %11 = getelementptr inbounds i8, ptr %10, i64 8
  %12 = getelementptr inbounds ptr, ptr %11, i64 %indvars.iv
  %13 = load ptr, ptr %12, align 8
  %14 = load i8, ptr %13, align 8
  %15 = icmp eq i8 %14, 2
  br i1 %15, label %16, label %34

16:                                               ; preds = %.lr.ph
  %17 = tail call noundef zeroext i1 @_ZN9CDSConfig16is_using_archiveEv() #25
  %18 = load i8, ptr %13, align 8
  %19 = icmp eq i8 %18, 0
  %or.cond.i = select i1 %17, i1 %19, i1 false
  br i1 %or.cond.i, label %20, label %26

20:                                               ; preds = %16
  %21 = load ptr, ptr @_ZN11ClassLoader10_jrt_entryE, align 8
  %22 = load ptr, ptr %21, align 8
  %23 = getelementptr inbounds i8, ptr %22, i64 40
  %24 = load ptr, ptr %23, align 8
  %25 = tail call noundef ptr %24(ptr noundef nonnull align 8 dereferenceable(16) %21) #25
  br label %_ZNK20SharedClassPathEntry4nameEv.exit

26:                                               ; preds = %16
  %27 = getelementptr inbounds i8, ptr %13, i64 24
  %28 = load ptr, ptr %27, align 8
  %29 = getelementptr inbounds i8, ptr %28, i64 4
  br label %_ZNK20SharedClassPathEntry4nameEv.exit

_ZNK20SharedClassPathEntry4nameEv.exit:           ; preds = %20, %26
  %.0.i = phi ptr [ %25, %20 ], [ %29, %26 ]
  %30 = tail call noundef zeroext i1 @_ZN2os12dir_is_emptyEPKc(ptr noundef %.0.i) #25
  br i1 %30, label %34, label %31

31:                                               ; preds = %_ZNK20SharedClassPathEntry4nameEv.exit
  %32 = load volatile ptr, ptr getelementptr inbounds (i8, ptr @_ZN16LogTagSetMappingILN6LogTag4typeE14ELS1_0ELS1_0ELS1_0ELS1_0ELS1_0EE7_tagsetE, i64 80), align 8
  %.not12 = icmp eq ptr %32, null
  br i1 %.not12, label %34, label %33

33:                                               ; preds = %31
  tail call void (ptr, ...) @_ZN7LogImplILN6LogTag4typeE14ELS1_0ELS1_0ELS1_0ELS1_0ELS1_0EE5writeILN8LogLevel4typeE5EEEvPKcz(ptr noundef nonnull @.str.63, ptr noundef %.0.i)
  br label %34

34:                                               ; preds = %33, %31, %.lr.ph, %_ZNK20SharedClassPathEntry4nameEv.exit
  %.1 = phi i1 [ %.015, %_ZNK20SharedClassPathEntry4nameEv.exit ], [ %.015, %.lr.ph ], [ true, %31 ], [ true, %33 ]
  %indvars.iv.next = add nuw nsw i64 %indvars.iv, 1
  %exitcond.not = icmp eq i64 %indvars.iv.next, %wide.trip.count
  br i1 %exitcond.not, label %._crit_edge, label %.lr.ph, !llvm.loop !18

._crit_edge:                                      ; preds = %34
  br i1 %.1, label %35, label %.critedge

35:                                               ; preds = %._crit_edge
  tail call void @_ZN11ClassLoader22exit_with_path_failureEPKcS1_(ptr noundef nonnull @.str.64, ptr noundef null) #25
  br label %.critedge

.critedge:                                        ; preds = %_ZN15SharedPathTable4sizeEv.exit, %35, %._crit_edge
  ret void
}